target datalayout = "e-m:e-p270:32:32-p271:32:32-p272:64:64-i64:64-i128:128-f80:128-n8:16:32:64-S128"
target triple = "x86_64-pc-linux-gnu"

%struct.varattrib_1b = type { i8, [0 x i8] }
%struct.varattrib_1b_e = type { i8, i8, [0 x i8] }
%struct.anon = type { i32, [0 x i8] }
%struct.varatt_external = type { i32, i32, i32, i32 }
%struct.RelationData = type { %struct.RelFileLocator, ptr, i32, i32, i8, i8, i8, i8, i8, i32, i32, i32, i32, ptr, ptr, i32, %struct.LockInfoData, ptr, ptr, ptr, ptr, ptr, i8, ptr, ptr, ptr, ptr, ptr, ptr, i32, ptr, i8, ptr, ptr, i32, i8, i32, ptr, i8, ptr, ptr, ptr, ptr, ptr, ptr, ptr, i32, ptr, ptr, ptr, ptr, ptr, ptr, ptr, ptr, ptr, ptr, ptr, ptr, ptr, ptr, ptr, ptr, ptr, ptr, ptr, i32, i8, ptr }
%struct.RelFileLocator = type { i32, i32, i32 }
%struct.LockInfoData = type { %struct.LockRelId }
%struct.LockRelId = type { i32, i32 }
%struct.TableAmRoutine = type { i32, ptr, ptr, ptr, ptr, ptr, ptr, ptr, ptr, ptr, ptr, ptr, ptr, ptr, ptr, ptr, ptr, ptr, ptr, ptr, ptr, ptr, ptr, ptr, ptr, ptr, ptr, ptr, ptr, ptr, ptr, ptr, ptr, ptr, ptr, ptr, ptr, ptr, ptr, ptr, ptr, ptr, ptr, ptr, ptr, ptr }

@.str.1 = private unnamed_addr constant [10 x i8] c"detoast.c\00", align 1
@.str.2 = private unnamed_addr constant [60 x i8] c"toast_fetch_datum shouldn't be called for non-ondisk datums\00", align 1
@__func__.toast_fetch_datum = private unnamed_addr constant [18 x i8] c"toast_fetch_datum\00", align 1

; Function Attrs: inlinehint nounwind uwtable
define internal void @table_relation_fetch_toast_slice(ptr noundef %0, i32 noundef %1, i32 noundef %2, i32 noundef %3, i32 noundef %4, ptr noundef %5) #4 {
  %7 = alloca ptr, align 8
  %8 = alloca i32, align 4
  %9 = alloca i32, align 4
  %10 = alloca i32, align 4
  %11 = alloca i32, align 4
  %12 = alloca ptr, align 8
  store ptr %0, ptr %7, align 8
  store i32 %1, ptr %8, align 4
  store i32 %2, ptr %9, align 4
  store i32 %3, ptr %10, align 4
  store i32 %4, ptr %11, align 4
  store ptr %5, ptr %12, align 8
  %13 = load ptr, ptr %7, align 8
  %14 = getelementptr inbounds nuw %struct.RelationData, ptr %13, i32 0, i32 47
  %15 = load ptr, ptr %14, align 8
  %16 = getelementptr inbounds nuw %struct.TableAmRoutine, ptr %15, i32 0, i32 40
  %17 = load ptr, ptr %16, align 8
  %18 = load ptr, ptr %7, align 8
  %19 = load i32, ptr %8, align 4
  %20 = load i32, ptr %9, align 4
  %21 = load i32, ptr %10, align 4
  %22 = load i32, ptr %11, align 4
  %23 = load ptr, ptr %12, align 8
  call void %17(ptr noundef %18, i32 noundef %19, i32 noundef %20, i32 noundef %21, i32 noundef %22, ptr noundef %23)
  ret void
}

; Function Attrs: nounwind uwtable
define internal ptr @toast_fetch_datum(ptr noundef %0) #0 {
  %2 = alloca ptr, align 8
  %3 = alloca ptr, align 8
  %4 = alloca ptr, align 8
  %5 = alloca ptr, align 8
  %6 = alloca %struct.varatt_external, align 4
  %7 = alloca i32, align 4
  %8 = alloca ptr, align 8
  %9 = alloca i32, align 4
  store ptr %0, ptr %3, align 8
  call void @llvm.lifetime.start.p0(i64 8, ptr %4) #7
  call void @llvm.lifetime.start.p0(i64 8, ptr %5) #7
  call void @llvm.lifetime.start.p0(i64 16, ptr %6) #7
  call void @llvm.lifetime.start.p0(i64 4, ptr %7) #7
  %10 = load ptr, ptr %3, align 8
  %11 = getelementptr inbounds nuw %struct.varattrib_1b, ptr %10, i32 0, i32 0
  %12 = load i8, ptr %11, align 1
  %13 = zext i8 %12 to i32
  %14 = icmp eq i32 %13, 1
  br i1 %14, label %15, label %21

15:                                               ; preds = %1
  %16 = load ptr, ptr %3, align 8
  %17 = getelementptr inbounds nuw %struct.varattrib_1b_e, ptr %16, i32 0, i32 1
  %18 = load i8, ptr %17, align 1
  %19 = zext i8 %18 to i32
  %20 = icmp eq i32 %19, 18
  br i1 %20, label %32, label %21

21:                                               ; preds = %15, %1
  br label %22

22:                                               ; preds = %21
  br i1 true, label %23, label %25

23:                                               ; preds = %22
  %24 = call zeroext i1 @errstart_cold(i32 noundef 21, ptr noundef null) #8
  br i1 %24, label %27, label %29

25:                                               ; preds = %22
  %26 = call zeroext i1 @errstart(i32 noundef 21, ptr noundef null)
  br i1 %26, label %27, label %29

27:                                               ; preds = %25, %23
  %28 = call i32 (ptr, ...) @errmsg_internal(ptr noundef @.str.2)
  call void @errfinish(ptr noundef @.str.1, i32 noundef 351, ptr noundef @__func__.toast_fetch_datum)
  br label %29

29:                                               ; preds = %27, %25, %23
  unreachable

30:                                               ; No predecessors!
  br label %31

31:                                               ; preds = %30
  br label %32

32:                                               ; preds = %31, %15
  br label %33

33:                                               ; preds = %32
  call void @llvm.lifetime.start.p0(i64 8, ptr %8) #7
  %34 = load ptr, ptr %3, align 8
  store ptr %34, ptr %8, align 8
  %35 = load ptr, ptr %8, align 8
  %36 = getelementptr inbounds nuw %struct.varattrib_1b_e, ptr %35, i32 0, i32 2
  %37 = getelementptr inbounds [0 x i8], ptr %36, i64 0, i64 0
  call void @llvm.memcpy.p0.p0.i64(ptr align 4 %6, ptr align 1 %37, i64 16, i1 false)
  call void @llvm.lifetime.end.p0(i64 8, ptr %8) #7
  br label %38

38:                                               ; preds = %33
  br label %39

39:                                               ; preds = %38
  %40 = getelementptr inbounds nuw %struct.varatt_external, ptr %6, i32 0, i32 1
  %41 = load i32, ptr %40, align 4
  %42 = and i32 %41, 1073741823
  store i32 %42, ptr %7, align 4
  %43 = load i32, ptr %7, align 4
  %44 = add i32 %43, 4
  %45 = sext i32 %44 to i64
  %46 = call ptr @palloc(i64 noundef %45)
  store ptr %46, ptr %5, align 8
  %47 = getelementptr inbounds nuw %struct.varatt_external, ptr %6, i32 0, i32 1
  %48 = load i32, ptr %47, align 4
  %49 = and i32 %48, 1073741823
  %50 = getelementptr inbounds nuw %struct.varatt_external, ptr %6, i32 0, i32 0
  %51 = load i32, ptr %50, align 4
  %52 = sub i32 %51, 4
  %53 = icmp ult i32 %49, %52
  br i1 %53, label %54, label %61

54:                                               ; preds = %39
  %55 = load i32, ptr %7, align 4
  %56 = add i32 %55, 4
  %57 = shl i32 %56, 2
  %58 = or i32 %57, 2
  %59 = load ptr, ptr %5, align 8
  %60 = getelementptr inbounds nuw %struct.anon, ptr %59, i32 0, i32 0
  store i32 %58, ptr %60, align 4
  br label %67

61:                                               ; preds = %39
  %62 = load i32, ptr %7, align 4
  %63 = add i32 %62, 4
  %64 = shl i32 %63, 2
  %65 = load ptr, ptr %5, align 8
  %66 = getelementptr inbounds nuw %struct.anon, ptr %65, i32 0, i32 0
  store i32 %64, ptr %66, align 4
  br label %67

67:                                               ; preds = %61, %54
  %68 = load i32, ptr %7, align 4
  %69 = icmp eq i32 %68, 0
  br i1 %69, label %70, label %72

70:                                               ; preds = %67
  %71 = load ptr, ptr %5, align 8
  store ptr %71, ptr %2, align 8
  store i32 1, ptr %9, align 4
  br label %84

72:                                               ; preds = %67
  %73 = getelementptr inbounds nuw %struct.varatt_external, ptr %6, i32 0, i32 3
  %74 = load i32, ptr %73, align 4
  %75 = call ptr @table_open(i32 noundef %74, i32 noundef 1)
  store ptr %75, ptr %4, align 8
  %76 = load ptr, ptr %4, align 8
  %77 = getelementptr inbounds nuw %struct.varatt_external, ptr %6, i32 0, i32 2
  %78 = load i32, ptr %77, align 4
  %79 = load i32, ptr %7, align 4
  %80 = load i32, ptr %7, align 4
  %81 = load ptr, ptr %5, align 8
  call void @table_relation_fetch_toast_slice(ptr noundef %76, i32 noundef %78, i32 noundef %79, i32 noundef 0, i32 noundef %80, ptr noundef %81)
  %82 = load ptr, ptr %4, align 8
  call void @table_close(ptr noundef %82, i32 noundef 1)
  %83 = load ptr, ptr %5, align 8
  store ptr %83, ptr %2, align 8
  store i32 1, ptr %9, align 4
  br label %84

84:                                               ; preds = %72, %70
  call void @llvm.lifetime.end.p0(i64 4, ptr %7) #7
  call void @llvm.lifetime.end.p0(i64 16, ptr %6) #7
  call void @llvm.lifetime.end.p0(i64 8, ptr %5) #7
  call void @llvm.lifetime.end.p0(i64 8, ptr %4) #7
  %85 = load ptr, ptr %2, align 8
  ret ptr %85
}