; Function Attrs: nounwind uwtable
define internal fastcc noundef ptr @toast_fetch_datum(ptr noundef readonly captures(none) %0) unnamed_addr #0 {
  %2 = load i8, ptr %0, align 1
  %3 = icmp eq i8 %2, 1
  br i1 %3, label %4, label %8

4:                                                ; preds = %1
  %5 = getelementptr inbounds nuw i8, ptr %0, i64 1
  %6 = load i8, ptr %5, align 1
  %7 = icmp eq i8 %6, 18
  br i1 %7, label %11, label %8

8:                                                ; preds = %4, %1
  %9 = tail call zeroext i1 @errstart_cold(i32 noundef 21, ptr noundef null) #7
  tail call void @llvm.assume(i1 %9)
  %10 = tail call i32 (ptr, ...) @errmsg_internal(ptr noundef nonnull @.str.2) #6
  tail call void @errfinish(ptr noundef nonnull @.str.1, i32 noundef 351, ptr noundef nonnull @__func__.toast_fetch_datum) #6
  unreachable

11:                                               ; preds = %4
  %12 = getelementptr inbounds nuw i8, ptr %0, i64 2
  %.sroa.0.0.copyload = load i32, ptr %12, align 1
  %.sroa.4.0..sroa_idx = getelementptr inbounds nuw i8, ptr %0, i64 6
  %.sroa.4.0.copyload = load i32, ptr %.sroa.4.0..sroa_idx, align 1
  %.sroa.6.0..sroa_idx = getelementptr inbounds nuw i8, ptr %0, i64 10
  %.sroa.6.0.copyload = load i32, ptr %.sroa.6.0..sroa_idx, align 1
  %.sroa.7.0..sroa_idx = getelementptr inbounds nuw i8, ptr %0, i64 14
  %.sroa.7.0.copyload = load i32, ptr %.sroa.7.0..sroa_idx, align 1
  %13 = and i32 %.sroa.4.0.copyload, 1073741823
  %14 = add nuw nsw i32 %13, 4
  %15 = zext nneg i32 %14 to i64
  %16 = tail call ptr @palloc(i64 noundef %15) #6
  %17 = add i32 %.sroa.0.0.copyload, -4
  %18 = icmp ult i32 %13, %17
  %19 = shl i32 %14, 2
  %20 = or disjoint i32 %19, 2
  %storemerge = select i1 %18, i32 %20, i32 %19
  store i32 %storemerge, ptr %16, align 4
  %21 = icmp eq i32 %13, 0
  br i1 %21, label %28, label %22

22:                                               ; preds = %11
  %23 = tail call ptr @table_open(i32 noundef %.sroa.7.0.copyload, i32 noundef 1) #6
  %24 = getelementptr inbounds nuw i8, ptr %23, i64 320
  %25 = load ptr, ptr %24, align 8
  %26 = getelementptr inbounds nuw i8, ptr %25, i64 320
  %27 = load ptr, ptr %26, align 8
  tail call void %27(ptr noundef %23, i32 noundef %.sroa.6.0.copyload, i32 noundef range(i32 0, 1073741824) %13, i32 noundef 0, i32 noundef range(i32 -1073741822, -2147483648) %13, ptr noundef nonnull %16) #6
  tail call void @table_close(ptr noundef %23, i32 noundef 1) #6
  br label %28

28:                                               ; preds = %11, %22
  ret ptr %16
}